; ModuleID = '24/1471.c'
source_filename = "24/1471.c"
target datalayout = "e-m:e-p270:32:32-p271:32:32-p272:64:64-i64:64-f80:128-n8:16:32:64-S128"
target triple = "x86_64-pc-linux-gnu"

@.str = private unnamed_addr constant [4 x i8] c"%s\0A\00", align 1
@.str.1 = private unnamed_addr constant [1 x i8] zeroinitializer, align 1

; Function Attrs: noinline nounwind uwtable
define dso_local i32 @main() #0 {
  %1 = alloca i32, align 4
  %2 = alloca [500 x i8], align 16
  %3 = alloca i8, align 1
  %4 = alloca [50 x i8], align 16
  %5 = alloca i32, align 4
  %6 = alloca i32, align 4
  %7 = alloca i32, align 4
  %8 = alloca i32, align 4
  %9 = alloca i32, align 4
  %10 = alloca i32, align 4
  store i32 0, i32* %1, align 4
  %11 = bitcast [50 x i8]* %4 to i8*
  call void @llvm.memset.p0i8.i64(i8* align 16 %11, i8 0, i64 50, i1 false)
  store i32 0, i32* %5, align 4
  store i32 0, i32* %6, align 4
  store i32 0, i32* %7, align 4
  store i32 50, i32* %8, align 4
  store i32 0, i32* %9, align 4
  store i32 0, i32* %10, align 4
  %12 = getelementptr inbounds [500 x i8], [500 x i8]* %2, i64 0, i64 0
  %13 = call i32 (i8*, ...) bitcast (i32 (...)* @gets to i32 (i8*, ...)*)(i8* %12)
  br label %14

14:                                               ; preds = %51, %0
  %15 = load i32, i32* %5, align 4
  %16 = sext i32 %15 to i64
  %17 = getelementptr inbounds [500 x i8], [500 x i8]* %2, i64 0, i64 %16
  %18 = load i8, i8* %17, align 1
  store i8 %18, i8* %3, align 1
  %19 = load i8, i8* %3, align 1
  %20 = sext i8 %19 to i32
  %21 = icmp eq i32 %20, 32
  br i1 %21, label %26, label %22

22:                                               ; preds = %14
  %23 = load i8, i8* %3, align 1
  %24 = sext i8 %23 to i32
  %25 = icmp eq i32 %24, 0
  br i1 %25, label %26, label %45

26:                                               ; preds = %22, %14
  %27 = load i32, i32* %6, align 4
  %28 = load i32, i32* %8, align 4
  %29 = icmp slt i32 %27, %28
  br i1 %29, label %30, label %35

30:                                               ; preds = %26
  %31 = load i32, i32* %6, align 4
  store i32 %31, i32* %8, align 4
  %32 = load i32, i32* %5, align 4
  %33 = load i32, i32* %6, align 4
  %34 = sub nsw i32 %32, %33
  store i32 %34, i32* %10, align 4
  br label %35

35:                                               ; preds = %30, %26
  %36 = load i32, i32* %6, align 4
  %37 = load i32, i32* %7, align 4
  %38 = icmp sgt i32 %36, %37
  br i1 %38, label %39, label %44

39:                                               ; preds = %35
  %40 = load i32, i32* %6, align 4
  store i32 %40, i32* %7, align 4
  %41 = load i32, i32* %5, align 4
  %42 = load i32, i32* %6, align 4
  %43 = sub nsw i32 %41, %42
  store i32 %43, i32* %9, align 4
  br label %44

44:                                               ; preds = %39, %35
  store i32 0, i32* %6, align 4
  br label %48

45:                                               ; preds = %22
  %46 = load i32, i32* %6, align 4
  %47 = add nsw i32 %46, 1
  store i32 %47, i32* %6, align 4
  br label %48

48:                                               ; preds = %45, %44
  %49 = load i32, i32* %5, align 4
  %50 = add nsw i32 %49, 1
  store i32 %50, i32* %5, align 4
  br label %51

51:                                               ; preds = %48
  %52 = load i8, i8* %3, align 1
  %53 = sext i8 %52 to i32
  %54 = icmp ne i32 %53, 0
  br i1 %54, label %14, label %55

55:                                               ; preds = %51
  %56 = getelementptr inbounds [50 x i8], [50 x i8]* %4, i64 0, i64 0
  %57 = getelementptr inbounds [500 x i8], [500 x i8]* %2, i64 0, i64 0
  %58 = load i32, i32* %9, align 4
  %59 = sext i32 %58 to i64
  %60 = getelementptr inbounds i8, i8* %57, i64 %59
  %61 = load i32, i32* %7, align 4
  %62 = sext i32 %61 to i64
  call void @llvm.memcpy.p0i8.p0i8.i64(i8* align 16 %56, i8* align 1 %60, i64 %62, i1 false)
  %63 = getelementptr inbounds [50 x i8], [50 x i8]* %4, i64 0, i64 0
  %64 = call i32 (i8*, ...) @printf(i8* getelementptr inbounds ([4 x i8], [4 x i8]* @.str, i64 0, i64 0), i8* %63)
  %65 = getelementptr inbounds [50 x i8], [50 x i8]* %4, i64 0, i64 0
  call void @llvm.memcpy.p0i8.p0i8.i64(i8* align 16 %65, i8* align 1 getelementptr inbounds ([1 x i8], [1 x i8]* @.str.1, i64 0, i64 0), i64 50, i1 false)
  %66 = getelementptr inbounds [50 x i8], [50 x i8]* %4, i64 0, i64 0
  %67 = getelementptr inbounds [500 x i8], [500 x i8]* %2, i64 0, i64 0
  %68 = load i32, i32* %10, align 4
  %69 = sext i32 %68 to i64
  %70 = getelementptr inbounds i8, i8* %67, i64 %69
  %71 = load i32, i32* %8, align 4
  %72 = sext i32 %71 to i64
  call void @llvm.memcpy.p0i8.p0i8.i64(i8* align 16 %66, i8* align 1 %70, i64 %72, i1 false)
  %73 = getelementptr inbounds [50 x i8], [50 x i8]* %4, i64 0, i64 0
  %74 = call i32 (i8*, ...) @printf(i8* getelementptr inbounds ([4 x i8], [4 x i8]* @.str, i64 0, i64 0), i8* %73)
  ret i32 0
}

; Function Attrs: argmemonly nounwind willreturn
declare void @llvm.memset.p0i8.i64(i8* nocapture writeonly, i8, i64, i1 immarg) #1

declare dso_local i32 @gets(...) #2

; Function Attrs: argmemonly nounwind willreturn
declare void @llvm.memcpy.p0i8.p0i8.i64(i8* noalias nocapture writeonly, i8* noalias nocapture readonly, i64, i1 immarg) #1

declare dso_local i32 @printf(i8*, ...) #2


!llvm.module.flags = !{!0}
!llvm.ident = !{!1}

!0 = !{i32 1, !"wchar_size", i32 4}
!1 = !{!"clang version 10.0.0-4ubuntu1 "}
